; Function Attrs: inlinehint nounwind uwtable
define internal range(i32 0, 2) i32 @nonzero_compactlong_float_guard(ptr noundef readonly captures(none) %0, ptr noundef %1) #7 {
  %3 = getelementptr i8, ptr %0, i64 8
  %.val6.i = load ptr, ptr %3, align 8, !tbaa !9
  %.not.i = icmp eq ptr %.val6.i, @PyLong_Type
  br i1 %.not.i, label %4, label %compactlong_float_guard.exit.thread

4:                                                ; preds = %2
  %5 = getelementptr i8, ptr %0, i64 16
  %.val7.i = load i64, ptr %5, align 8, !tbaa !153
  %6 = icmp ugt i64 %.val7.i, 15
  br i1 %6, label %compactlong_float_guard.exit.thread, label %7

7:                                                ; preds = %4
  %8 = getelementptr i8, ptr %1, i64 8
  %.val.i = load ptr, ptr %8, align 8, !tbaa !9
  %.not8.i = icmp eq ptr %.val.i, @PyFloat_Type
  br i1 %.not8.i, label %compactlong_float_guard.exit, label %compactlong_float_guard.exit.thread

compactlong_float_guard.exit:                     ; preds = %7
  %9 = tail call double @PyFloat_AsDouble(ptr noundef nonnull %1) #9
  %10 = fcmp uno double %9, 0.000000e+00
  br i1 %10, label %compactlong_float_guard.exit.thread, label %11

11:                                               ; preds = %compactlong_float_guard.exit
  %12 = tail call double @PyFloat_AsDouble(ptr noundef nonnull %1) #9
  %13 = fcmp une double %12, 0.000000e+00
  %14 = zext i1 %13 to i32
  br label %compactlong_float_guard.exit.thread

compactlong_float_guard.exit.thread:              ; preds = %2, %4, %7, %11, %compactlong_float_guard.exit
  %15 = phi i32 [ 0, %compactlong_float_guard.exit ], [ %14, %11 ], [ 0, %7 ], [ 0, %4 ], [ 0, %2 ]
  ret i32 %15
}